; ModuleID = '57/452.c'
source_filename = "57/452.c"
target datalayout = "e-m:e-p270:32:32-p271:32:32-p272:64:64-i64:64-f80:128-n8:16:32:64-S128"
target triple = "x86_64-pc-linux-gnu"

@eng = dso_local global [60 x [35 x i8]] zeroinitializer, align 16
@.str = private unnamed_addr constant [3 x i8] c"%d\00", align 1
@i = common dso_local global i32 0, align 4
@.str.1 = private unnamed_addr constant [3 x i8] c"%s\00", align 1
@.str.2 = private unnamed_addr constant [4 x i8] c"%s\0A\00", align 1

; Function Attrs: noinline nounwind uwtable
define dso_local void @main() #0 {
  %1 = alloca i32, align 4
  %2 = call i32 (i8*, ...) @__isoc99_scanf(i8* getelementptr inbounds ([3 x i8], [3 x i8]* @.str, i64 0, i64 0), i32* %1)
  store i32 0, i32* @i, align 4
  br label %3

3:                                                ; preds = %12, %0
  %4 = load i32, i32* @i, align 4
  %5 = load i32, i32* %1, align 4
  %6 = icmp slt i32 %4, %5
  br i1 %6, label %7, label %15

7:                                                ; preds = %3
  %8 = load i32, i32* @i, align 4
  %9 = sext i32 %8 to i64
  %10 = getelementptr inbounds [60 x [35 x i8]], [60 x [35 x i8]]* @eng, i64 0, i64 %9
  %11 = call i32 (i8*, ...) @__isoc99_scanf(i8* getelementptr inbounds ([3 x i8], [3 x i8]* @.str.1, i64 0, i64 0), [35 x i8]* %10)
  br label %12

12:                                               ; preds = %7
  %13 = load i32, i32* @i, align 4
  %14 = add nsw i32 %13, 1
  store i32 %14, i32* @i, align 4
  br label %3

15:                                               ; preds = %3
  store i32 0, i32* @i, align 4
  br label %16

16:                                               ; preds = %22, %15
  %17 = load i32, i32* @i, align 4
  %18 = load i32, i32* %1, align 4
  %19 = icmp slt i32 %17, %18
  br i1 %19, label %20, label %25

20:                                               ; preds = %16
  %21 = load i32, i32* @i, align 4
  call void @change(i32 %21)
  br label %22

22:                                               ; preds = %20
  %23 = load i32, i32* @i, align 4
  %24 = add nsw i32 %23, 1
  store i32 %24, i32* @i, align 4
  br label %16

25:                                               ; preds = %16
  store i32 0, i32* @i, align 4
  br label %26

26:                                               ; preds = %36, %25
  %27 = load i32, i32* @i, align 4
  %28 = load i32, i32* %1, align 4
  %29 = icmp slt i32 %27, %28
  br i1 %29, label %30, label %39

30:                                               ; preds = %26
  %31 = load i32, i32* @i, align 4
  %32 = sext i32 %31 to i64
  %33 = getelementptr inbounds [60 x [35 x i8]], [60 x [35 x i8]]* @eng, i64 0, i64 %32
  %34 = getelementptr inbounds [35 x i8], [35 x i8]* %33, i64 0, i64 0
  %35 = call i32 (i8*, ...) @printf(i8* getelementptr inbounds ([4 x i8], [4 x i8]* @.str.2, i64 0, i64 0), i8* %34)
  br label %36

36:                                               ; preds = %30
  %37 = load i32, i32* @i, align 4
  %38 = add nsw i32 %37, 1
  store i32 %38, i32* @i, align 4
  br label %26

39:                                               ; preds = %26
  ret void
}

declare dso_local i32 @__isoc99_scanf(i8*, ...) #1

; Function Attrs: noinline nounwind uwtable
define dso_local void @change(i32 %0) #0 {
  %2 = alloca i32, align 4
  %3 = alloca i32, align 4
  store i32 %0, i32* %2, align 4
  %4 = load i32, i32* %2, align 4
  %5 = sext i32 %4 to i64
  %6 = getelementptr inbounds [60 x [35 x i8]], [60 x [35 x i8]]* @eng, i64 0, i64 %5
  %7 = getelementptr inbounds [35 x i8], [35 x i8]* %6, i64 0, i64 0
  %8 = call i64 @strlen(i8* %7) #3
  %9 = trunc i64 %8 to i32
  store i32 %9, i32* %3, align 4
  %10 = load i32, i32* %2, align 4
  %11 = sext i32 %10 to i64
  %12 = getelementptr inbounds [60 x [35 x i8]], [60 x [35 x i8]]* @eng, i64 0, i64 %11
  %13 = load i32, i32* %3, align 4
  %14 = sub nsw i32 %13, 2
  %15 = sext i32 %14 to i64
  %16 = getelementptr inbounds [35 x i8], [35 x i8]* %12, i64 0, i64 %15
  %17 = load i8, i8* %16, align 1
  %18 = sext i8 %17 to i32
  %19 = icmp eq i32 %18, 101
  br i1 %19, label %31, label %20

20:                                               ; preds = %1
  %21 = load i32, i32* %2, align 4
  %22 = sext i32 %21 to i64
  %23 = getelementptr inbounds [60 x [35 x i8]], [60 x [35 x i8]]* @eng, i64 0, i64 %22
  %24 = load i32, i32* %3, align 4
  %25 = sub nsw i32 %24, 2
  %26 = sext i32 %25 to i64
  %27 = getelementptr inbounds [35 x i8], [35 x i8]* %23, i64 0, i64 %26
  %28 = load i8, i8* %27, align 1
  %29 = sext i8 %28 to i32
  %30 = icmp eq i32 %29, 108
  br i1 %30, label %31, label %39

31:                                               ; preds = %20, %1
  %32 = load i32, i32* %2, align 4
  %33 = sext i32 %32 to i64
  %34 = getelementptr inbounds [60 x [35 x i8]], [60 x [35 x i8]]* @eng, i64 0, i64 %33
  %35 = load i32, i32* %3, align 4
  %36 = sub nsw i32 %35, 2
  %37 = sext i32 %36 to i64
  %38 = getelementptr inbounds [35 x i8], [35 x i8]* %34, i64 0, i64 %37
  store i8 0, i8* %38, align 1
  br label %59

39:                                               ; preds = %20
  %40 = load i32, i32* %2, align 4
  %41 = sext i32 %40 to i64
  %42 = getelementptr inbounds [60 x [35 x i8]], [60 x [35 x i8]]* @eng, i64 0, i64 %41
  %43 = load i32, i32* %3, align 4
  %44 = sub nsw i32 %43, 3
  %45 = sext i32 %44 to i64
  %46 = getelementptr inbounds [35 x i8], [35 x i8]* %42, i64 0, i64 %45
  %47 = load i8, i8* %46, align 1
  %48 = sext i8 %47 to i32
  %49 = icmp eq i32 %48, 105
  br i1 %49, label %50, label %58

50:                                               ; preds = %39
  %51 = load i32, i32* %2, align 4
  %52 = sext i32 %51 to i64
  %53 = getelementptr inbounds [60 x [35 x i8]], [60 x [35 x i8]]* @eng, i64 0, i64 %52
  %54 = load i32, i32* %3, align 4
  %55 = sub nsw i32 %54, 3
  %56 = sext i32 %55 to i64
  %57 = getelementptr inbounds [35 x i8], [35 x i8]* %53, i64 0, i64 %56
  store i8 0, i8* %57, align 1
  br label %58

58:                                               ; preds = %50, %39
  br label %59

59:                                               ; preds = %58, %31
  ret void
}

declare dso_local i32 @printf(i8*, ...) #1

; Function Attrs: nounwind readonly
declare dso_local i64 @strlen(i8*) #2


!llvm.module.flags = !{!0}
!llvm.ident = !{!1}

!0 = !{i32 1, !"wchar_size", i32 4}
!1 = !{!"clang version 10.0.0-4ubuntu1 "}
